; ModuleID = '5/1138.c'
source_filename = "5/1138.c"
target datalayout = "e-m:e-p270:32:32-p271:32:32-p272:64:64-i64:64-f80:128-n8:16:32:64-S128"
target triple = "x86_64-pc-linux-gnu"

@.str = private unnamed_addr constant [8 x i8] c"%lf%s%s\00", align 1
@.str.1 = private unnamed_addr constant [4 x i8] c"yes\00", align 1
@.str.2 = private unnamed_addr constant [3 x i8] c"no\00", align 1
@.str.3 = private unnamed_addr constant [6 x i8] c"error\00", align 1

; Function Attrs: noinline nounwind uwtable
define dso_local i32 @main() #0 {
  %1 = alloca i32, align 4
  %2 = alloca double, align 8
  %3 = alloca i32, align 4
  %4 = alloca i32, align 4
  %5 = alloca i32, align 4
  %6 = alloca i32, align 4
  %7 = alloca i32, align 4
  %8 = alloca [500 x i8], align 16
  %9 = alloca [500 x i8], align 16
  store i32 0, i32* %1, align 4
  store i32 0, i32* %5, align 4
  store i32 0, i32* %7, align 4
  %10 = getelementptr inbounds [500 x i8], [500 x i8]* %8, i64 0, i64 0
  %11 = getelementptr inbounds [500 x i8], [500 x i8]* %9, i64 0, i64 0
  %12 = call i32 (i8*, ...) @__isoc99_scanf(i8* getelementptr inbounds ([8 x i8], [8 x i8]* @.str, i64 0, i64 0), double* %2, i8* %10, i8* %11)
  %13 = getelementptr inbounds [500 x i8], [500 x i8]* %8, i64 0, i64 0
  %14 = call i64 @strlen(i8* %13) #3
  %15 = trunc i64 %14 to i32
  store i32 %15, i32* %3, align 4
  %16 = getelementptr inbounds [500 x i8], [500 x i8]* %9, i64 0, i64 0
  %17 = call i64 @strlen(i8* %16) #3
  %18 = trunc i64 %17 to i32
  store i32 %18, i32* %4, align 4
  store i32 0, i32* %6, align 4
  br label %19

19:                                               ; preds = %53, %0
  %20 = load i32, i32* %6, align 4
  %21 = load i32, i32* %3, align 4
  %22 = icmp slt i32 %20, %21
  br i1 %22, label %23, label %56

23:                                               ; preds = %19
  %24 = load i32, i32* %6, align 4
  %25 = sext i32 %24 to i64
  %26 = getelementptr inbounds [500 x i8], [500 x i8]* %8, i64 0, i64 %25
  %27 = load i8, i8* %26, align 1
  %28 = sext i8 %27 to i32
  %29 = icmp ne i32 %28, 65
  br i1 %29, label %30, label %52

30:                                               ; preds = %23
  %31 = load i32, i32* %6, align 4
  %32 = sext i32 %31 to i64
  %33 = getelementptr inbounds [500 x i8], [500 x i8]* %8, i64 0, i64 %32
  %34 = load i8, i8* %33, align 1
  %35 = sext i8 %34 to i32
  %36 = icmp ne i32 %35, 67
  br i1 %36, label %37, label %52

37:                                               ; preds = %30
  %38 = load i32, i32* %6, align 4
  %39 = sext i32 %38 to i64
  %40 = getelementptr inbounds [500 x i8], [500 x i8]* %8, i64 0, i64 %39
  %41 = load i8, i8* %40, align 1
  %42 = sext i8 %41 to i32
  %43 = icmp ne i32 %42, 84
  br i1 %43, label %44, label %52

44:                                               ; preds = %37
  %45 = load i32, i32* %6, align 4
  %46 = sext i32 %45 to i64
  %47 = getelementptr inbounds [500 x i8], [500 x i8]* %8, i64 0, i64 %46
  %48 = load i8, i8* %47, align 1
  %49 = sext i8 %48 to i32
  %50 = icmp ne i32 %49, 71
  br i1 %50, label %51, label %52

51:                                               ; preds = %44
  store i32 1, i32* %7, align 4
  br label %56

52:                                               ; preds = %44, %37, %30, %23
  br label %53

53:                                               ; preds = %52
  %54 = load i32, i32* %6, align 4
  %55 = add nsw i32 %54, 1
  store i32 %55, i32* %6, align 4
  br label %19

56:                                               ; preds = %51, %19
  store i32 0, i32* %6, align 4
  br label %57

57:                                               ; preds = %91, %56
  %58 = load i32, i32* %6, align 4
  %59 = load i32, i32* %3, align 4
  %60 = icmp slt i32 %58, %59
  br i1 %60, label %61, label %94

61:                                               ; preds = %57
  %62 = load i32, i32* %6, align 4
  %63 = sext i32 %62 to i64
  %64 = getelementptr inbounds [500 x i8], [500 x i8]* %9, i64 0, i64 %63
  %65 = load i8, i8* %64, align 1
  %66 = sext i8 %65 to i32
  %67 = icmp ne i32 %66, 65
  br i1 %67, label %68, label %90

68:                                               ; preds = %61
  %69 = load i32, i32* %6, align 4
  %70 = sext i32 %69 to i64
  %71 = getelementptr inbounds [500 x i8], [500 x i8]* %9, i64 0, i64 %70
  %72 = load i8, i8* %71, align 1
  %73 = sext i8 %72 to i32
  %74 = icmp ne i32 %73, 67
  br i1 %74, label %75, label %90

75:                                               ; preds = %68
  %76 = load i32, i32* %6, align 4
  %77 = sext i32 %76 to i64
  %78 = getelementptr inbounds [500 x i8], [500 x i8]* %9, i64 0, i64 %77
  %79 = load i8, i8* %78, align 1
  %80 = sext i8 %79 to i32
  %81 = icmp ne i32 %80, 84
  br i1 %81, label %82, label %90

82:                                               ; preds = %75
  %83 = load i32, i32* %6, align 4
  %84 = sext i32 %83 to i64
  %85 = getelementptr inbounds [500 x i8], [500 x i8]* %9, i64 0, i64 %84
  %86 = load i8, i8* %85, align 1
  %87 = sext i8 %86 to i32
  %88 = icmp ne i32 %87, 71
  br i1 %88, label %89, label %90

89:                                               ; preds = %82
  store i32 1, i32* %7, align 4
  br label %94

90:                                               ; preds = %82, %75, %68, %61
  br label %91

91:                                               ; preds = %90
  %92 = load i32, i32* %6, align 4
  %93 = add nsw i32 %92, 1
  store i32 %93, i32* %6, align 4
  br label %57

94:                                               ; preds = %89, %57
  %95 = load i32, i32* %7, align 4
  %96 = icmp eq i32 %95, 0
  br i1 %96, label %97, label %138

97:                                               ; preds = %94
  %98 = load i32, i32* %3, align 4
  %99 = load i32, i32* %4, align 4
  %100 = icmp eq i32 %98, %99
  br i1 %100, label %101, label %138

101:                                              ; preds = %97
  store i32 0, i32* %6, align 4
  br label %102

102:                                              ; preds = %122, %101
  %103 = load i32, i32* %6, align 4
  %104 = load i32, i32* %3, align 4
  %105 = icmp slt i32 %103, %104
  br i1 %105, label %106, label %125

106:                                              ; preds = %102
  %107 = load i32, i32* %6, align 4
  %108 = sext i32 %107 to i64
  %109 = getelementptr inbounds [500 x i8], [500 x i8]* %8, i64 0, i64 %108
  %110 = load i8, i8* %109, align 1
  %111 = sext i8 %110 to i32
  %112 = load i32, i32* %6, align 4
  %113 = sext i32 %112 to i64
  %114 = getelementptr inbounds [500 x i8], [500 x i8]* %9, i64 0, i64 %113
  %115 = load i8, i8* %114, align 1
  %116 = sext i8 %115 to i32
  %117 = icmp eq i32 %111, %116
  br i1 %117, label %118, label %121

118:                                              ; preds = %106
  %119 = load i32, i32* %5, align 4
  %120 = add nsw i32 %119, 1
  store i32 %120, i32* %5, align 4
  br label %121

121:                                              ; preds = %118, %106
  br label %122

122:                                              ; preds = %121
  %123 = load i32, i32* %6, align 4
  %124 = add nsw i32 %123, 1
  store i32 %124, i32* %6, align 4
  br label %102

125:                                              ; preds = %102
  %126 = load i32, i32* %5, align 4
  %127 = sitofp i32 %126 to double
  %128 = load i32, i32* %3, align 4
  %129 = sitofp i32 %128 to double
  %130 = fdiv double %127, %129
  %131 = load double, double* %2, align 8
  %132 = fcmp ogt double %130, %131
  br i1 %132, label %133, label %135

133:                                              ; preds = %125
  %134 = call i32 (i8*, ...) @printf(i8* getelementptr inbounds ([4 x i8], [4 x i8]* @.str.1, i64 0, i64 0))
  br label %137

135:                                              ; preds = %125
  %136 = call i32 (i8*, ...) @printf(i8* getelementptr inbounds ([3 x i8], [3 x i8]* @.str.2, i64 0, i64 0))
  br label %137

137:                                              ; preds = %135, %133
  br label %140

138:                                              ; preds = %97, %94
  %139 = call i32 (i8*, ...) @printf(i8* getelementptr inbounds ([6 x i8], [6 x i8]* @.str.3, i64 0, i64 0))
  br label %140

140:                                              ; preds = %138, %137
  ret i32 0
}

declare dso_local i32 @__isoc99_scanf(i8*, ...) #1

; Function Attrs: nounwind readonly
declare dso_local i64 @strlen(i8*) #2

declare dso_local i32 @printf(i8*, ...) #1


!llvm.module.flags = !{!0}
!llvm.ident = !{!1}

!0 = !{i32 1, !"wchar_size", i32 4}
!1 = !{!"clang version 10.0.0-4ubuntu1 "}
