; ModuleID = 'source-C-CXX/4/1138.c'
source_filename = "source-C-CXX/4/1138.c"
target datalayout = "e-m:e-p270:32:32-p271:32:32-p272:64:64-i64:64-f80:128-n8:16:32:64-S128"
target triple = "x86_64-pc-linux-gnu"

@.str = private unnamed_addr constant [8 x i8] c"%lf%s%s\00", align 1
@.str.1 = private unnamed_addr constant [4 x i8] c"yes\00", align 1
@.str.2 = private unnamed_addr constant [3 x i8] c"no\00", align 1
@.str.3 = private unnamed_addr constant [6 x i8] c"error\00", align 1

; Function Attrs: nofree nounwind sspstrong uwtable
define dso_local i32 @main() local_unnamed_addr #0 {
  %1 = alloca double, align 8
  %2 = alloca [500 x i8], align 16
  %3 = alloca [500 x i8], align 16
  %4 = bitcast double* %1 to i8*
  call void @llvm.lifetime.start.p0i8(i64 8, i8* nonnull %4) #5
  %5 = getelementptr inbounds [500 x i8], [500 x i8]* %2, i64 0, i64 0
  call void @llvm.lifetime.start.p0i8(i64 500, i8* nonnull %5) #5
  %6 = getelementptr inbounds [500 x i8], [500 x i8]* %3, i64 0, i64 0
  call void @llvm.lifetime.start.p0i8(i64 500, i8* nonnull %6) #5
  %7 = call i32 (i8*, ...) @__isoc99_scanf(i8* getelementptr inbounds ([8 x i8], [8 x i8]* @.str, i64 0, i64 0), double* nonnull %1, i8* nonnull %5, i8* nonnull %6)
  %8 = call i64 @strlen(i8* noundef nonnull %5) #6
  %9 = trunc i64 %8 to i32
  %10 = call i64 @strlen(i8* noundef nonnull %6) #6
  %11 = trunc i64 %10 to i32
  %12 = icmp sgt i32 %9, 0
  br i1 %12, label %13, label %38

13:                                               ; preds = %0
  %14 = shl i64 %8, 32
  %15 = ashr exact i64 %14, 32
  %16 = and i64 %8, 4294967295
  br label %17

17:                                               ; preds = %13, %22
  %18 = phi i64 [ 0, %13 ], [ %23, %22 ]
  %19 = phi i1 [ true, %13 ], [ %24, %22 ]
  %20 = getelementptr inbounds [500 x i8], [500 x i8]* %2, i64 0, i64 %18
  %21 = load i8, i8* %20, align 1, !tbaa !5
  switch i8 %21, label %26 [
    i8 65, label %22
    i8 67, label %22
    i8 84, label %22
    i8 71, label %22
  ]

22:                                               ; preds = %17, %17, %17, %17
  %23 = add nuw nsw i64 %18, 1
  %24 = icmp slt i64 %23, %15
  %25 = icmp eq i64 %23, %16
  br i1 %25, label %26, label %17, !llvm.loop !8

26:                                               ; preds = %22, %17
  %27 = phi i1 [ %24, %22 ], [ %19, %17 ]
  %28 = xor i1 %27, true
  br i1 %12, label %29, label %38

29:                                               ; preds = %26
  %30 = and i64 %8, 4294967295
  br label %31

31:                                               ; preds = %29, %35
  %32 = phi i64 [ 0, %29 ], [ %36, %35 ]
  %33 = getelementptr inbounds [500 x i8], [500 x i8]* %3, i64 0, i64 %32
  %34 = load i8, i8* %33, align 1, !tbaa !5
  switch i8 %34, label %102 [
    i8 65, label %35
    i8 67, label %35
    i8 84, label %35
    i8 71, label %35
  ]

35:                                               ; preds = %31, %31, %31, %31
  %36 = add nuw nsw i64 %32, 1
  %37 = icmp eq i64 %36, %30
  br i1 %37, label %38, label %31, !llvm.loop !10

38:                                               ; preds = %35, %0, %26
  %39 = phi i1 [ %28, %26 ], [ true, %0 ], [ %28, %35 ]
  %40 = icmp eq i32 %9, %11
  %41 = select i1 %39, i1 %40, i1 false
  br i1 %41, label %42, label %102

42:                                               ; preds = %38
  br i1 %12, label %43, label %95

43:                                               ; preds = %42
  %44 = and i64 %8, 4294967295
  %45 = icmp ult i64 %44, 8
  br i1 %45, label %77, label %46

46:                                               ; preds = %43
  %47 = and i64 %8, 7
  %48 = sub nsw i64 %44, %47
  br label %49

49:                                               ; preds = %49, %46
  %50 = phi i64 [ 0, %46 ], [ %71, %49 ]
  %51 = phi <4 x i32> [ zeroinitializer, %46 ], [ %69, %49 ]
  %52 = phi <4 x i32> [ zeroinitializer, %46 ], [ %70, %49 ]
  %53 = getelementptr inbounds [500 x i8], [500 x i8]* %2, i64 0, i64 %50
  %54 = bitcast i8* %53 to <4 x i8>*
  %55 = load <4 x i8>, <4 x i8>* %54, align 8, !tbaa !5
  %56 = getelementptr inbounds i8, i8* %53, i64 4
  %57 = bitcast i8* %56 to <4 x i8>*
  %58 = load <4 x i8>, <4 x i8>* %57, align 4, !tbaa !5
  %59 = getelementptr inbounds [500 x i8], [500 x i8]* %3, i64 0, i64 %50
  %60 = bitcast i8* %59 to <4 x i8>*
  %61 = load <4 x i8>, <4 x i8>* %60, align 8, !tbaa !5
  %62 = getelementptr inbounds i8, i8* %59, i64 4
  %63 = bitcast i8* %62 to <4 x i8>*
  %64 = load <4 x i8>, <4 x i8>* %63, align 4, !tbaa !5
  %65 = icmp eq <4 x i8> %55, %61
  %66 = icmp eq <4 x i8> %58, %64
  %67 = zext <4 x i1> %65 to <4 x i32>
  %68 = zext <4 x i1> %66 to <4 x i32>
  %69 = add <4 x i32> %51, %67
  %70 = add <4 x i32> %52, %68
  %71 = add nuw i64 %50, 8
  %72 = icmp eq i64 %71, %48
  br i1 %72, label %73, label %49, !llvm.loop !11

73:                                               ; preds = %49
  %74 = add <4 x i32> %70, %69
  %75 = call i32 @llvm.vector.reduce.add.v4i32(<4 x i32> %74)
  %76 = icmp eq i64 %47, 0
  br i1 %76, label %92, label %77

77:                                               ; preds = %43, %73
  %78 = phi i64 [ 0, %43 ], [ %48, %73 ]
  %79 = phi i32 [ 0, %43 ], [ %75, %73 ]
  br label %80

80:                                               ; preds = %77, %80
  %81 = phi i64 [ %90, %80 ], [ %78, %77 ]
  %82 = phi i32 [ %89, %80 ], [ %79, %77 ]
  %83 = getelementptr inbounds [500 x i8], [500 x i8]* %2, i64 0, i64 %81
  %84 = load i8, i8* %83, align 1, !tbaa !5
  %85 = getelementptr inbounds [500 x i8], [500 x i8]* %3, i64 0, i64 %81
  %86 = load i8, i8* %85, align 1, !tbaa !5
  %87 = icmp eq i8 %84, %86
  %88 = zext i1 %87 to i32
  %89 = add nuw nsw i32 %82, %88
  %90 = add nuw nsw i64 %81, 1
  %91 = icmp eq i64 %90, %44
  br i1 %91, label %92, label %80, !llvm.loop !13

92:                                               ; preds = %80, %73
  %93 = phi i32 [ %75, %73 ], [ %89, %80 ]
  %94 = sitofp i32 %93 to double
  br label %95

95:                                               ; preds = %92, %42
  %96 = phi double [ 0.000000e+00, %42 ], [ %94, %92 ]
  %97 = sitofp i32 %9 to double
  %98 = fdiv double %96, %97
  %99 = load double, double* %1, align 8, !tbaa !15
  %100 = fcmp ogt double %98, %99
  %101 = select i1 %100, i8* getelementptr inbounds ([4 x i8], [4 x i8]* @.str.1, i64 0, i64 0), i8* getelementptr inbounds ([3 x i8], [3 x i8]* @.str.2, i64 0, i64 0)
  br label %102

102:                                              ; preds = %31, %38, %95
  %103 = phi i8* [ %101, %95 ], [ getelementptr inbounds ([6 x i8], [6 x i8]* @.str.3, i64 0, i64 0), %38 ], [ getelementptr inbounds ([6 x i8], [6 x i8]* @.str.3, i64 0, i64 0), %31 ]
  %104 = call i32 (i8*, ...) @printf(i8* nonnull dereferenceable(1) %103)
  call void @llvm.lifetime.end.p0i8(i64 500, i8* nonnull %6) #5
  call void @llvm.lifetime.end.p0i8(i64 500, i8* nonnull %5) #5
  call void @llvm.lifetime.end.p0i8(i64 8, i8* nonnull %4) #5
  ret i32 0
}

; Function Attrs: argmemonly mustprogress nofree nosync nounwind willreturn
declare void @llvm.lifetime.start.p0i8(i64 immarg, i8* nocapture) #1

; Function Attrs: nofree nounwind
declare noundef i32 @__isoc99_scanf(i8* nocapture noundef readonly, ...) local_unnamed_addr #2

; Function Attrs: argmemonly mustprogress nofree nounwind readonly willreturn
declare i64 @strlen(i8* nocapture) local_unnamed_addr #3

; Function Attrs: nofree nounwind
declare noundef i32 @printf(i8* nocapture noundef readonly, ...) local_unnamed_addr #2

; Function Attrs: argmemonly mustprogress nofree nosync nounwind willreturn
declare void @llvm.lifetime.end.p0i8(i64 immarg, i8* nocapture) #1

; Function Attrs: nofree nosync nounwind readnone willreturn
declare i32 @llvm.vector.reduce.add.v4i32(<4 x i32>) #4


!llvm.module.flags = !{!0, !1, !2, !3}
!llvm.ident = !{!4}

!0 = !{i32 1, !"wchar_size", i32 4}
!1 = !{i32 7, !"PIC Level", i32 2}
!2 = !{i32 7, !"PIE Level", i32 2}
!3 = !{i32 7, !"uwtable", i32 1}
!4 = !{!"clang version 13.0.0"}
!5 = !{!6, !6, i64 0}
!6 = !{!"omnipotent char", !7, i64 0}
!7 = !{!"Simple C/C++ TBAA"}
!8 = distinct !{!8, !9}
!9 = !{!"llvm.loop.mustprogress"}
!10 = distinct !{!10, !9}
!11 = distinct !{!11, !9, !12}
!12 = !{!"llvm.loop.isvectorized", i32 1}
!13 = distinct !{!13, !9, !14, !12}
!14 = !{!"llvm.loop.unroll.runtime.disable"}
!15 = !{!16, !16, i64 0}
!16 = !{!"double", !6, i64 0}
